ccopy_reg
_reconstructor
p1
(cOrderAccount
Account
p2
c__builtin__
object
p3
NtRp4
(dp5
S'cash_action'
p6
(dp7
sS'cash_amount'
p8
F1000000
sS'stock_amount'
p9
F0
sS'df'
p10
NsS'gross_amount'
p11
F1000000
sS'max_position'
p12
F10
sS'occupied_position'
p13
I0
sS'initial_amount'
p14
F1000000
sS'active_order'
p15
(dp16
sS'is_full'
p17
I00
sS'money4one'
p18
F100000
sS'action'
p19
(dp20
sS'left_position'
p21
F10
sS'dead_order'
p22
(lp23
sb.